target datalayout = "e-m:e-p270:32:32-p271:32:32-p272:64:64-i64:64-i128:128-f80:128-n8:16:32:64-S128"
target triple = "x86_64-pc-linux-gnu"

%struct.X509_name_st = type { ptr, i32, ptr, ptr, i32 }

; Function Attrs: nounwind uwtable
define hidden i64 @X509_NAME_hash(ptr noundef %0) #0 {
  %2 = alloca i64, align 8
  %3 = alloca ptr, align 8
  %4 = alloca i64, align 8
  %5 = alloca [20 x i8], align 16
  %6 = alloca i32, align 4
  store ptr %0, ptr %3, align 8, !tbaa !37
  call void @llvm.lifetime.start.p0(i64 8, ptr %4) #5
  store i64 0, ptr %4, align 8, !tbaa !44
  call void @llvm.lifetime.start.p0(i64 20, ptr %5) #5
  %7 = load ptr, ptr %3, align 8, !tbaa !37
  %8 = call i32 @i2d_X509_NAME(ptr noundef %7, ptr noundef null)
  %9 = load ptr, ptr %3, align 8, !tbaa !37
  %10 = getelementptr inbounds nuw %struct.X509_name_st, ptr %9, i32 0, i32 3
  %11 = load ptr, ptr %10, align 8, !tbaa !38
  %12 = load ptr, ptr %3, align 8, !tbaa !37
  %13 = getelementptr inbounds nuw %struct.X509_name_st, ptr %12, i32 0, i32 4
  %14 = load i32, ptr %13, align 8, !tbaa !43
  %15 = sext i32 %14 to i64
  %16 = getelementptr inbounds [20 x i8], ptr %5, i64 0, i64 0
  %17 = call ptr @EVP_sha1()
  %18 = call i32 @EVP_Digest(ptr noundef %11, i64 noundef %15, ptr noundef %16, ptr noundef null, ptr noundef %17, ptr noundef null)
  %19 = icmp ne i32 %18, 0
  br i1 %19, label %21, label %20

20:                                               ; preds = %1
  store i64 0, ptr %2, align 8
  store i32 1, ptr %6, align 4
  br label %42

21:                                               ; preds = %1
  %22 = getelementptr inbounds [20 x i8], ptr %5, i64 0, i64 0
  %23 = load i8, ptr %22, align 16, !tbaa !49
  %24 = zext i8 %23 to i64
  %25 = getelementptr inbounds [20 x i8], ptr %5, i64 0, i64 1
  %26 = load i8, ptr %25, align 1, !tbaa !49
  %27 = zext i8 %26 to i64
  %28 = shl i64 %27, 8
  %29 = or i64 %24, %28
  %30 = getelementptr inbounds [20 x i8], ptr %5, i64 0, i64 2
  %31 = load i8, ptr %30, align 2, !tbaa !49
  %32 = zext i8 %31 to i64
  %33 = shl i64 %32, 16
  %34 = or i64 %29, %33
  %35 = getelementptr inbounds [20 x i8], ptr %5, i64 0, i64 3
  %36 = load i8, ptr %35, align 1, !tbaa !49
  %37 = zext i8 %36 to i64
  %38 = shl i64 %37, 24
  %39 = or i64 %34, %38
  %40 = and i64 %39, 4294967295
  store i64 %40, ptr %4, align 8, !tbaa !44
  %41 = load i64, ptr %4, align 8, !tbaa !44
  store i64 %41, ptr %2, align 8
  store i32 1, ptr %6, align 4
  br label %42

42:                                               ; preds = %21, %20
  call void @llvm.lifetime.end.p0(i64 20, ptr %5) #5
  call void @llvm.lifetime.end.p0(i64 8, ptr %4) #5
  %43 = load i64, ptr %2, align 8
  ret i64 %43
}