; Function Attrs: nounwind uwtable
define hidden range(i64 0, 4294967296) i64 @X509_NAME_hash(ptr noundef %0) local_unnamed_addr #0 {
  %2 = alloca [20 x i8], align 16
  call void @llvm.lifetime.start.p0(i64 20, ptr nonnull %2) #8
  %3 = tail call i32 @i2d_X509_NAME(ptr noundef %0, ptr noundef null) #8
  %4 = getelementptr inbounds nuw i8, ptr %0, i64 24
  %5 = load ptr, ptr %4, align 8, !tbaa !33
  %6 = getelementptr inbounds nuw i8, ptr %0, i64 32
  %7 = load i32, ptr %6, align 8, !tbaa !38
  %8 = sext i32 %7 to i64
  %9 = tail call ptr @EVP_sha1() #8
  %10 = call i32 @EVP_Digest(ptr noundef %5, i64 noundef %8, ptr noundef nonnull %2, ptr noundef null, ptr noundef %9, ptr noundef null) #8
  %.not = icmp eq i32 %10, 0
  %11 = load i32, ptr %2, align 16
  %narrow = select i1 %.not, i32 0, i32 %11
  %.0 = zext i32 %narrow to i64
  call void @llvm.lifetime.end.p0(i64 20, ptr nonnull %2) #8
  ret i64 %.0
}